target datalayout = "e-m:e-p270:32:32-p271:32:32-p272:64:64-i64:64-i128:128-f80:128-n8:16:32:64-S128"
target triple = "x86_64-pc-linux-gnu"

%struct.ForEachState = type { ptr, i32 }
%union.ListCell = type { ptr }
%struct.PlannerInfo = type { i32, ptr, ptr, i32, ptr, ptr, ptr, ptr, i32, ptr, ptr, ptr, ptr, ptr, ptr, ptr, ptr, i32, ptr, ptr, ptr, ptr, ptr, i8, ptr, ptr, ptr, ptr, ptr, i32, ptr, ptr, ptr, ptr, ptr, ptr, ptr, i32, ptr, ptr, ptr, i32, ptr, ptr, ptr, ptr, ptr, ptr, [8 x ptr], [8 x ptr], ptr, ptr, ptr, ptr, ptr, ptr, ptr, double, double, double, i32, i8, i8, i8, i8, i8, i8, i8, i32, ptr, ptr, i32, i8, i8, i32, ptr, ptr, ptr, ptr, ptr, ptr, i8, ptr }
%struct.List = type { i32, i32, i32, ptr, [0 x %union.ListCell] }
%struct.SubPlan = type { %struct.Expr, i32, ptr, ptr, i32, ptr, i32, i32, i32, i8, i8, i8, ptr, ptr, ptr, double, double }
%struct.Expr = type { i32 }
%struct.PlannerGlobal = type { i32, ptr, ptr, ptr, ptr, ptr, ptr, ptr, ptr, ptr, ptr, ptr, ptr, ptr, ptr, ptr, ptr, i32, i32, i32, i8, i8, i8, i8, i8, ptr }
%struct.PlannerParamItem = type { i32, ptr, i32 }

; Function Attrs: nounwind uwtable
define dso_local void @SS_identify_outer_params(ptr noundef %0) #0 {
  %2 = alloca ptr, align 8
  %3 = alloca ptr, align 8
  %4 = alloca ptr, align 8
  %5 = alloca ptr, align 8
  %6 = alloca i32, align 4
  %7 = alloca %struct.ForEachState, align 8
  %8 = alloca ptr, align 8
  %9 = alloca %struct.ForEachState, align 8
  %10 = alloca ptr, align 8
  %11 = alloca ptr, align 8
  %12 = alloca %struct.ForEachState, align 8
  store ptr %0, ptr %2, align 8
  call void @llvm.lifetime.start.p0(i64 8, ptr %3) #8
  call void @llvm.lifetime.start.p0(i64 8, ptr %4) #8
  call void @llvm.lifetime.start.p0(i64 8, ptr %5) #8
  %13 = load ptr, ptr %2, align 8
  %14 = getelementptr inbounds nuw %struct.PlannerInfo, ptr %13, i32 0, i32 2
  %15 = load ptr, ptr %14, align 8
  %16 = getelementptr inbounds nuw %struct.PlannerGlobal, ptr %15, i32 0, i32 16
  %17 = load ptr, ptr %16, align 8
  %18 = icmp eq ptr %17, null
  br i1 %18, label %19, label %20

19:                                               ; preds = %1
  store i32 1, ptr %6, align 4
  br label %174

20:                                               ; preds = %1
  store ptr null, ptr %3, align 8
  %21 = load ptr, ptr %2, align 8
  %22 = getelementptr inbounds nuw %struct.PlannerInfo, ptr %21, i32 0, i32 4
  %23 = load ptr, ptr %22, align 8
  store ptr %23, ptr %4, align 8
  br label %24

24:                                               ; preds = %166, %20
  %25 = load ptr, ptr %4, align 8
  %26 = icmp ne ptr %25, null
  br i1 %26, label %27, label %170

27:                                               ; preds = %24
  call void @llvm.lifetime.start.p0(i64 16, ptr %7) #8
  %28 = getelementptr inbounds nuw %struct.ForEachState, ptr %7, i32 0, i32 0
  %29 = load ptr, ptr %4, align 8
  %30 = getelementptr inbounds nuw %struct.PlannerInfo, ptr %29, i32 0, i32 5
  %31 = load ptr, ptr %30, align 8
  store ptr %31, ptr %28, align 8
  %32 = getelementptr inbounds nuw %struct.ForEachState, ptr %7, i32 0, i32 1
  store i32 0, ptr %32, align 8
  %33 = getelementptr i8, ptr %7, i64 12
  call void @llvm.memset.p0.i64(ptr align 4 %33, i8 0, i64 4, i1 false)
  br label %34

34:                                               ; preds = %68, %27
  %35 = getelementptr inbounds nuw %struct.ForEachState, ptr %7, i32 0, i32 0
  %36 = load ptr, ptr %35, align 8
  %37 = icmp ne ptr %36, null
  br i1 %37, label %38, label %55

38:                                               ; preds = %34
  %39 = getelementptr inbounds nuw %struct.ForEachState, ptr %7, i32 0, i32 1
  %40 = load i32, ptr %39, align 8
  %41 = getelementptr inbounds nuw %struct.ForEachState, ptr %7, i32 0, i32 0
  %42 = load ptr, ptr %41, align 8
  %43 = getelementptr inbounds nuw %struct.List, ptr %42, i32 0, i32 1
  %44 = load i32, ptr %43, align 4
  %45 = icmp slt i32 %40, %44
  br i1 %45, label %46, label %55

46:                                               ; preds = %38
  %47 = getelementptr inbounds nuw %struct.ForEachState, ptr %7, i32 0, i32 0
  %48 = load ptr, ptr %47, align 8
  %49 = getelementptr inbounds nuw %struct.List, ptr %48, i32 0, i32 3
  %50 = load ptr, ptr %49, align 8
  %51 = getelementptr inbounds nuw %struct.ForEachState, ptr %7, i32 0, i32 1
  %52 = load i32, ptr %51, align 8
  %53 = sext i32 %52 to i64
  %54 = getelementptr inbounds %union.ListCell, ptr %50, i64 %53
  store ptr %54, ptr %5, align 8
  br label %56

55:                                               ; preds = %38, %34
  store ptr null, ptr %5, align 8
  br label %56

56:                                               ; preds = %55, %46
  %57 = phi i32 [ 1, %46 ], [ 0, %55 ]
  %58 = icmp ne i32 %57, 0
  br i1 %58, label %60, label %59

59:                                               ; preds = %56
  store i32 5, ptr %6, align 4
  call void @llvm.lifetime.end.p0(i64 16, ptr %7) #8
  br label %72

60:                                               ; preds = %56
  call void @llvm.lifetime.start.p0(i64 8, ptr %8) #8
  %61 = load ptr, ptr %5, align 8
  %62 = load ptr, ptr %61, align 8
  store ptr %62, ptr %8, align 8
  %63 = load ptr, ptr %3, align 8
  %64 = load ptr, ptr %8, align 8
  %65 = getelementptr inbounds nuw %struct.PlannerParamItem, ptr %64, i32 0, i32 2
  %66 = load i32, ptr %65, align 8
  %67 = call ptr @bms_add_member(ptr noundef %63, i32 noundef %66)
  store ptr %67, ptr %3, align 8
  call void @llvm.lifetime.end.p0(i64 8, ptr %8) #8
  br label %68

68:                                               ; preds = %60
  %69 = getelementptr inbounds nuw %struct.ForEachState, ptr %7, i32 0, i32 1
  %70 = load i32, ptr %69, align 8
  %71 = add i32 %70, 1
  store i32 %71, ptr %69, align 8
  br label %34, !llvm.loop !13

72:                                               ; preds = %59
  call void @llvm.lifetime.start.p0(i64 16, ptr %9) #8
  %73 = getelementptr inbounds nuw %struct.ForEachState, ptr %9, i32 0, i32 0
  %74 = load ptr, ptr %4, align 8
  %75 = getelementptr inbounds nuw %struct.PlannerInfo, ptr %74, i32 0, i32 18
  %76 = load ptr, ptr %75, align 8
  store ptr %76, ptr %73, align 8
  %77 = getelementptr inbounds nuw %struct.ForEachState, ptr %9, i32 0, i32 1
  store i32 0, ptr %77, align 8
  %78 = getelementptr i8, ptr %9, i64 12
  call void @llvm.memset.p0.i64(ptr align 4 %78, i8 0, i64 4, i1 false)
  br label %79

79:                                               ; preds = %150, %72
  %80 = getelementptr inbounds nuw %struct.ForEachState, ptr %9, i32 0, i32 0
  %81 = load ptr, ptr %80, align 8
  %82 = icmp ne ptr %81, null
  br i1 %82, label %83, label %100

83:                                               ; preds = %79
  %84 = getelementptr inbounds nuw %struct.ForEachState, ptr %9, i32 0, i32 1
  %85 = load i32, ptr %84, align 8
  %86 = getelementptr inbounds nuw %struct.ForEachState, ptr %9, i32 0, i32 0
  %87 = load ptr, ptr %86, align 8
  %88 = getelementptr inbounds nuw %struct.List, ptr %87, i32 0, i32 1
  %89 = load i32, ptr %88, align 4
  %90 = icmp slt i32 %85, %89
  br i1 %90, label %91, label %100

91:                                               ; preds = %83
  %92 = getelementptr inbounds nuw %struct.ForEachState, ptr %9, i32 0, i32 0
  %93 = load ptr, ptr %92, align 8
  %94 = getelementptr inbounds nuw %struct.List, ptr %93, i32 0, i32 3
  %95 = load ptr, ptr %94, align 8
  %96 = getelementptr inbounds nuw %struct.ForEachState, ptr %9, i32 0, i32 1
  %97 = load i32, ptr %96, align 8
  %98 = sext i32 %97 to i64
  %99 = getelementptr inbounds %union.ListCell, ptr %95, i64 %98
  store ptr %99, ptr %5, align 8
  br label %101

100:                                              ; preds = %83, %79
  store ptr null, ptr %5, align 8
  br label %101

101:                                              ; preds = %100, %91
  %102 = phi i32 [ 1, %91 ], [ 0, %100 ]
  %103 = icmp ne i32 %102, 0
  br i1 %103, label %105, label %104

104:                                              ; preds = %101
  store i32 8, ptr %6, align 4
  call void @llvm.lifetime.end.p0(i64 16, ptr %9) #8
  br label %154

105:                                              ; preds = %101
  call void @llvm.lifetime.start.p0(i64 8, ptr %10) #8
  %106 = load ptr, ptr %5, align 8
  %107 = load ptr, ptr %106, align 8
  store ptr %107, ptr %10, align 8
  call void @llvm.lifetime.start.p0(i64 8, ptr %11) #8
  call void @llvm.lifetime.start.p0(i64 16, ptr %12) #8
  %108 = getelementptr inbounds nuw %struct.ForEachState, ptr %12, i32 0, i32 0
  %109 = load ptr, ptr %10, align 8
  %110 = getelementptr inbounds nuw %struct.SubPlan, ptr %109, i32 0, i32 12
  %111 = load ptr, ptr %110, align 8
  store ptr %111, ptr %108, align 8
  %112 = getelementptr inbounds nuw %struct.ForEachState, ptr %12, i32 0, i32 1
  store i32 0, ptr %112, align 8
  %113 = getelementptr i8, ptr %12, i64 12
  call void @llvm.memset.p0.i64(ptr align 4 %113, i8 0, i64 4, i1 false)
  br label %114

114:                                              ; preds = %145, %105
  %115 = getelementptr inbounds nuw %struct.ForEachState, ptr %12, i32 0, i32 0
  %116 = load ptr, ptr %115, align 8
  %117 = icmp ne ptr %116, null
  br i1 %117, label %118, label %135

118:                                              ; preds = %114
  %119 = getelementptr inbounds nuw %struct.ForEachState, ptr %12, i32 0, i32 1
  %120 = load i32, ptr %119, align 8
  %121 = getelementptr inbounds nuw %struct.ForEachState, ptr %12, i32 0, i32 0
  %122 = load ptr, ptr %121, align 8
  %123 = getelementptr inbounds nuw %struct.List, ptr %122, i32 0, i32 1
  %124 = load i32, ptr %123, align 4
  %125 = icmp slt i32 %120, %124
  br i1 %125, label %126, label %135

126:                                              ; preds = %118
  %127 = getelementptr inbounds nuw %struct.ForEachState, ptr %12, i32 0, i32 0
  %128 = load ptr, ptr %127, align 8
  %129 = getelementptr inbounds nuw %struct.List, ptr %128, i32 0, i32 3
  %130 = load ptr, ptr %129, align 8
  %131 = getelementptr inbounds nuw %struct.ForEachState, ptr %12, i32 0, i32 1
  %132 = load i32, ptr %131, align 8
  %133 = sext i32 %132 to i64
  %134 = getelementptr inbounds %union.ListCell, ptr %130, i64 %133
  store ptr %134, ptr %11, align 8
  br label %136

135:                                              ; preds = %118, %114
  store ptr null, ptr %11, align 8
  br label %136

136:                                              ; preds = %135, %126
  %137 = phi i32 [ 1, %126 ], [ 0, %135 ]
  %138 = icmp ne i32 %137, 0
  br i1 %138, label %140, label %139

139:                                              ; preds = %136
  store i32 11, ptr %6, align 4
  call void @llvm.lifetime.end.p0(i64 16, ptr %12) #8
  br label %149

140:                                              ; preds = %136
  %141 = load ptr, ptr %3, align 8
  %142 = load ptr, ptr %11, align 8
  %143 = load i32, ptr %142, align 8
  %144 = call ptr @bms_add_member(ptr noundef %141, i32 noundef %143)
  store ptr %144, ptr %3, align 8
  br label %145

145:                                              ; preds = %140
  %146 = getelementptr inbounds nuw %struct.ForEachState, ptr %12, i32 0, i32 1
  %147 = load i32, ptr %146, align 8
  %148 = add i32 %147, 1
  store i32 %148, ptr %146, align 8
  br label %114, !llvm.loop !14

149:                                              ; preds = %139
  call void @llvm.lifetime.end.p0(i64 8, ptr %11) #8
  call void @llvm.lifetime.end.p0(i64 8, ptr %10) #8
  br label %150

150:                                              ; preds = %149
  %151 = getelementptr inbounds nuw %struct.ForEachState, ptr %9, i32 0, i32 1
  %152 = load i32, ptr %151, align 8
  %153 = add i32 %152, 1
  store i32 %153, ptr %151, align 8
  br label %79, !llvm.loop !15

154:                                              ; preds = %104
  %155 = load ptr, ptr %4, align 8
  %156 = getelementptr inbounds nuw %struct.PlannerInfo, ptr %155, i32 0, i32 74
  %157 = load i32, ptr %156, align 8
  %158 = icmp sge i32 %157, 0
  br i1 %158, label %159, label %165

159:                                              ; preds = %154
  %160 = load ptr, ptr %3, align 8
  %161 = load ptr, ptr %4, align 8
  %162 = getelementptr inbounds nuw %struct.PlannerInfo, ptr %161, i32 0, i32 74
  %163 = load i32, ptr %162, align 8
  %164 = call ptr @bms_add_member(ptr noundef %160, i32 noundef %163)
  store ptr %164, ptr %3, align 8
  br label %165

165:                                              ; preds = %159, %154
  br label %166

166:                                              ; preds = %165
  %167 = load ptr, ptr %4, align 8
  %168 = getelementptr inbounds nuw %struct.PlannerInfo, ptr %167, i32 0, i32 4
  %169 = load ptr, ptr %168, align 8
  store ptr %169, ptr %4, align 8
  br label %24, !llvm.loop !16

170:                                              ; preds = %24
  %171 = load ptr, ptr %3, align 8
  %172 = load ptr, ptr %2, align 8
  %173 = getelementptr inbounds nuw %struct.PlannerInfo, ptr %172, i32 0, i32 6
  store ptr %171, ptr %173, align 8
  store i32 0, ptr %6, align 4
  br label %174

174:                                              ; preds = %170, %19
  call void @llvm.lifetime.end.p0(i64 8, ptr %5) #8
  call void @llvm.lifetime.end.p0(i64 8, ptr %4) #8
  call void @llvm.lifetime.end.p0(i64 8, ptr %3) #8
  %175 = load i32, ptr %6, align 4
  switch i32 %175, label %177 [
    i32 0, label %176
    i32 1, label %176
  ]

176:                                              ; preds = %174, %174
  ret void

177:                                              ; preds = %174
  unreachable
}