; Function Attrs: nounwind uwtable
define dso_local void @SS_identify_outer_params(ptr noundef captures(none) %0) local_unnamed_addr #0 {
  %2 = getelementptr inbounds nuw i8, ptr %0, i64 16
  %3 = load ptr, ptr %2, align 8
  %4 = getelementptr inbounds nuw i8, ptr %3, i64 128
  %5 = load ptr, ptr %4, align 8
  %6 = icmp eq ptr %5, null
  br i1 %6, label %55, label %.preheader

.preheader:                                       ; preds = %1
  %.036.in99 = getelementptr inbounds nuw i8, ptr %0, i64 32
  %.036100 = load ptr, ptr %.036.in99, align 8
  %.not101 = icmp eq ptr %.036100, null
  br i1 %.not101, label %._crit_edge105, label %.lr.ph104

.lr.ph104:                                        ; preds = %.preheader, %53
  %.036103 = phi ptr [ %.036, %53 ], [ %.036100, %.preheader ]
  %.0102 = phi ptr [ %.4, %53 ], [ null, %.preheader ]
  %7 = getelementptr inbounds nuw i8, ptr %.036103, i64 40
  %8 = load ptr, ptr %7, align 8
  %9 = getelementptr inbounds nuw i8, ptr %8, i64 4
  %.not44 = icmp eq ptr %8, null
  br i1 %.not44, label %._crit_edge, label %.lr.ph

.lr.ph:                                           ; preds = %.lr.ph104
  %10 = getelementptr inbounds nuw i8, ptr %8, i64 16
  %11 = load i32, ptr %9, align 4
  %12 = icmp sgt i32 %11, 0
  br i1 %12, label %.lr.ph67, label %._crit_edge

._crit_edge:                                      ; preds = %.lr.ph67, %.lr.ph, %.lr.ph104
  %.1.lcssa = phi ptr [ %.0102, %.lr.ph104 ], [ %.0102, %.lr.ph ], [ %24, %.lr.ph67 ]
  %13 = getelementptr inbounds nuw i8, ptr %.036103, i64 144
  %14 = load ptr, ptr %13, align 8
  %15 = getelementptr inbounds nuw i8, ptr %14, i64 4
  %.not46 = icmp eq ptr %14, null
  br i1 %.not46, label %._crit_edge89.split.us, label %.lr.ph86

.lr.ph86:                                         ; preds = %._crit_edge
  %16 = getelementptr inbounds nuw i8, ptr %14, i64 16
  %17 = load i32, ptr %15, align 4
  %18 = icmp sgt i32 %17, 0
  br i1 %18, label %.lr.ph97, label %._crit_edge89.split.us

.lr.ph67:                                         ; preds = %.lr.ph, %.lr.ph67
  %indvars.iv = phi i64 [ %indvars.iv.next, %.lr.ph67 ], [ 0, %.lr.ph ]
  %.16165 = phi ptr [ %24, %.lr.ph67 ], [ %.0102, %.lr.ph ]
  %19 = load ptr, ptr %10, align 8
  %20 = getelementptr inbounds nuw %union.ListCell, ptr %19, i64 %indvars.iv
  %21 = load ptr, ptr %20, align 8
  %22 = getelementptr inbounds nuw i8, ptr %21, i64 16
  %23 = load i32, ptr %22, align 8
  %24 = tail call ptr @bms_add_member(ptr noundef %.16165, i32 noundef %23) #10
  %indvars.iv.next = add nuw nsw i64 %indvars.iv, 1
  %25 = load i32, ptr %9, align 4
  %26 = sext i32 %25 to i64
  %27 = icmp slt i64 %indvars.iv.next, %26
  br i1 %27, label %.lr.ph67, label %._crit_edge

._crit_edge89.split.us:                           ; preds = %._crit_edge73, %.lr.ph86, %._crit_edge
  %.2.lcssa = phi ptr [ %.1.lcssa, %._crit_edge ], [ %.1.lcssa, %.lr.ph86 ], [ %.3.lcssa, %._crit_edge73 ]
  %28 = getelementptr inbounds nuw i8, ptr %.036103, i64 632
  %29 = load i32, ptr %28, align 8
  %30 = icmp sgt i32 %29, -1
  br i1 %30, label %51, label %53

.lr.ph97:                                         ; preds = %.lr.ph86, %._crit_edge73
  %31 = phi i32 [ %41, %._crit_edge73 ], [ %17, %.lr.ph86 ]
  %indvars.iv112 = phi i64 [ %indvars.iv.next113, %._crit_edge73 ], [ 0, %.lr.ph86 ]
  %.28495 = phi ptr [ %.3.lcssa, %._crit_edge73 ], [ %.1.lcssa, %.lr.ph86 ]
  %32 = load ptr, ptr %16, align 8
  %33 = getelementptr inbounds nuw %union.ListCell, ptr %32, i64 %indvars.iv112
  %34 = load ptr, ptr %33, align 8
  %35 = getelementptr inbounds nuw i8, ptr %34, i64 56
  %36 = load ptr, ptr %35, align 8
  %37 = getelementptr inbounds nuw i8, ptr %36, i64 4
  %.not48 = icmp eq ptr %36, null
  br i1 %.not48, label %._crit_edge73, label %.lr.ph72

.lr.ph72:                                         ; preds = %.lr.ph97
  %38 = getelementptr inbounds nuw i8, ptr %36, i64 16
  %39 = load i32, ptr %37, align 4
  %40 = icmp sgt i32 %39, 0
  br i1 %40, label %.lr.ph81, label %._crit_edge73

._crit_edge73.loopexit:                           ; preds = %.lr.ph81
  %.pre = load i32, ptr %15, align 4
  br label %._crit_edge73

._crit_edge73:                                    ; preds = %._crit_edge73.loopexit, %.lr.ph72, %.lr.ph97
  %41 = phi i32 [ %31, %.lr.ph97 ], [ %31, %.lr.ph72 ], [ %.pre, %._crit_edge73.loopexit ]
  %.3.lcssa = phi ptr [ %.28495, %.lr.ph97 ], [ %.28495, %.lr.ph72 ], [ %47, %._crit_edge73.loopexit ]
  %indvars.iv.next113 = add nuw nsw i64 %indvars.iv112, 1
  %42 = sext i32 %41 to i64
  %43 = icmp slt i64 %indvars.iv.next113, %42
  br i1 %43, label %.lr.ph97, label %._crit_edge89.split.us

.lr.ph81:                                         ; preds = %.lr.ph72, %.lr.ph81
  %indvars.iv109 = phi i64 [ %indvars.iv.next110, %.lr.ph81 ], [ 0, %.lr.ph72 ]
  %.37079 = phi ptr [ %47, %.lr.ph81 ], [ %.28495, %.lr.ph72 ]
  %44 = load ptr, ptr %38, align 8
  %45 = getelementptr inbounds nuw %union.ListCell, ptr %44, i64 %indvars.iv109
  %46 = load i32, ptr %45, align 8
  %47 = tail call ptr @bms_add_member(ptr noundef %.37079, i32 noundef %46) #10
  %indvars.iv.next110 = add nuw nsw i64 %indvars.iv109, 1
  %48 = load i32, ptr %37, align 4
  %49 = sext i32 %48 to i64
  %50 = icmp slt i64 %indvars.iv.next110, %49
  br i1 %50, label %.lr.ph81, label %._crit_edge73.loopexit

51:                                               ; preds = %._crit_edge89.split.us
  %52 = tail call ptr @bms_add_member(ptr noundef %.2.lcssa, i32 noundef %29) #10
  br label %53

53:                                               ; preds = %._crit_edge89.split.us, %51
  %.4 = phi ptr [ %52, %51 ], [ %.2.lcssa, %._crit_edge89.split.us ]
  %.036.in = getelementptr inbounds nuw i8, ptr %.036103, i64 32
  %.036 = load ptr, ptr %.036.in, align 8
  %.not = icmp eq ptr %.036, null
  br i1 %.not, label %._crit_edge105, label %.lr.ph104, !llvm.loop !9

._crit_edge105:                                   ; preds = %53, %.preheader
  %.0.lcssa = phi ptr [ null, %.preheader ], [ %.4, %53 ]
  %54 = getelementptr inbounds nuw i8, ptr %0, i64 48
  store ptr %.0.lcssa, ptr %54, align 8
  br label %55

55:                                               ; preds = %1, %._crit_edge105
  ret void
}